target datalayout = "e-m:e-p270:32:32-p271:32:32-p272:64:64-i64:64-i128:128-f80:128-n8:16:32:64-S128"
target triple = "x86_64-pc-linux-gnu"

%struct.tr2_dst = type { i32, i32, i8 }

; Function Attrs: nounwind uwtable
define dso_local void @tr2_dst_trace_disable(ptr noundef %0) #0 {
  %2 = alloca ptr, align 8
  store ptr %0, ptr %2, align 8, !tbaa !4
  %3 = load ptr, ptr %2, align 8, !tbaa !4
  %4 = getelementptr inbounds nuw %struct.tr2_dst, ptr %3, i32 0, i32 2
  %5 = load i8, ptr %4, align 4
  %6 = lshr i8 %5, 1
  %7 = and i8 %6, 1
  %8 = zext i8 %7 to i32
  %9 = icmp ne i32 %8, 0
  br i1 %9, label %10, label %15

10:                                               ; preds = %1
  %11 = load ptr, ptr %2, align 8, !tbaa !4
  %12 = getelementptr inbounds nuw %struct.tr2_dst, ptr %11, i32 0, i32 1
  %13 = load i32, ptr %12, align 4, !tbaa !9
  %14 = call i32 @close(i32 noundef %13)
  br label %15

15:                                               ; preds = %10, %1
  %16 = load ptr, ptr %2, align 8, !tbaa !4
  %17 = getelementptr inbounds nuw %struct.tr2_dst, ptr %16, i32 0, i32 1
  store i32 0, ptr %17, align 4, !tbaa !9
  %18 = load ptr, ptr %2, align 8, !tbaa !4
  %19 = getelementptr inbounds nuw %struct.tr2_dst, ptr %18, i32 0, i32 2
  %20 = load i8, ptr %19, align 4
  %21 = and i8 %20, -2
  %22 = or i8 %21, 1
  store i8 %22, ptr %19, align 4
  %23 = load ptr, ptr %2, align 8, !tbaa !4
  %24 = getelementptr inbounds nuw %struct.tr2_dst, ptr %23, i32 0, i32 2
  %25 = load i8, ptr %24, align 4
  %26 = and i8 %25, -3
  %27 = or i8 %26, 0
  store i8 %27, ptr %24, align 4
  ret void
}