; Function Attrs: nounwind uwtable
define dso_local void @tr2_dst_trace_disable(ptr noundef captures(none) %0) local_unnamed_addr #0 {
  %2 = getelementptr inbounds nuw i8, ptr %0, i64 8
  %3 = load i8, ptr %2, align 4
  %4 = and i8 %3, 2
  %.not = icmp eq i8 %4, 0
  br i1 %.not, label %9, label %5

5:                                                ; preds = %1
  %6 = getelementptr inbounds nuw i8, ptr %0, i64 4
  %7 = load i32, ptr %6, align 4, !tbaa !4
  %8 = tail call i32 @close(i32 noundef %7) #13
  %.pre = load i8, ptr %2, align 4
  br label %9

9:                                                ; preds = %5, %1
  %10 = phi i8 [ %.pre, %5 ], [ %3, %1 ]
  %11 = getelementptr inbounds nuw i8, ptr %0, i64 4
  store i32 0, ptr %11, align 4, !tbaa !4
  %12 = and i8 %10, -4
  %13 = or disjoint i8 %12, 1
  store i8 %13, ptr %2, align 4
  ret void
}